; Function Attrs: mustprogress uwtable
define dso_local noundef nonnull align 8 dereferenceable(24) ptr @_ZN4i18n12phonenumbers11UnicodeText14UnsafeCopyUTF8EPKci(ptr noundef nonnull returned align 8 dereferenceable(24) %0, ptr noundef readonly captures(none) %1, i32 noundef %2) local_unnamed_addr #1 align 2 {
  %4 = icmp eq i32 %2, 0
  %5 = getelementptr inbounds nuw i8, ptr %0, i64 16
  %6 = load i8, ptr %5, align 8, !tbaa !17, !range !18, !noundef !19
  %7 = trunc nuw i8 %6 to i1
  br i1 %4, label %8, label %13

8:                                                ; preds = %3
  br i1 %7, label %9, label %_ZN4i18n12phonenumbers11UnicodeText4Repr5clearEv.exit.i.i

9:                                                ; preds = %8
  %10 = load ptr, ptr %0, align 8, !tbaa !20
  %11 = icmp eq ptr %10, null
  br i1 %11, label %_ZN4i18n12phonenumbers11UnicodeText4Repr5clearEv.exit.i.i, label %12

12:                                               ; preds = %9
  tail call void @_ZdaPv(ptr noundef nonnull %10) #26
  br label %_ZN4i18n12phonenumbers11UnicodeText4Repr5clearEv.exit.i.i

_ZN4i18n12phonenumbers11UnicodeText4Repr5clearEv.exit.i.i: ; preds = %12, %9, %8
  tail call void @llvm.memset.p0.i64(ptr noundef nonnull align 8 dereferenceable(18) %0, i8 0, i64 16, i1 false)
  br label %_ZN4i18n12phonenumbers11UnicodeText4Repr4CopyEPKci.exit

13:                                               ; preds = %3
  %14 = getelementptr inbounds nuw i8, ptr %0, i64 12
  %15 = load i32, ptr %14, align 4
  %16 = icmp sle i32 %2, %15
  %or.cond10.not.i.i = and i1 %16, %7
  br i1 %or.cond10.not.i.i, label %._ZN4i18n12phonenumbers11UnicodeText4Repr7reserveEi.exit.i_crit_edge.i, label %17

._ZN4i18n12phonenumbers11UnicodeText4Repr7reserveEi.exit.i_crit_edge.i: ; preds = %13
  %.pre.pre3.pre.i = load ptr, ptr %0, align 8, !tbaa !20
  br label %_ZN4i18n12phonenumbers11UnicodeText4Repr7reserveEi.exit.i.i

17:                                               ; preds = %13
  %18 = mul nsw i32 %15, 3
  %19 = sdiv i32 %18, 2
  %20 = add nsw i32 %19, 20
  %.sroa.speculated.i.i.i = tail call i32 @llvm.smax.i32(i32 %2, i32 %20)
  store i32 %.sroa.speculated.i.i.i, ptr %14, align 4, !tbaa !13
  %21 = sext i32 %.sroa.speculated.i.i.i to i64
  %22 = tail call noalias noundef nonnull ptr @_Znam(i64 noundef %21) #25
  %23 = load ptr, ptr %0, align 8, !tbaa !20
  %.not4.i.i.i = icmp eq ptr %23, null
  br i1 %.not4.i.i.i, label %29, label %24

24:                                               ; preds = %17
  %25 = getelementptr inbounds nuw i8, ptr %0, i64 8
  %26 = load i32, ptr %25, align 8, !tbaa !21
  %27 = sext i32 %26 to i64
  tail call void @llvm.memcpy.p0.p0.i64(ptr nonnull align 1 %22, ptr nonnull align 1 %23, i64 %27, i1 false)
  br i1 %7, label %28, label %29

28:                                               ; preds = %24
  tail call void @_ZdaPv(ptr noundef nonnull %23) #26
  br label %29

29:                                               ; preds = %28, %24, %17
  store ptr %22, ptr %0, align 8, !tbaa !20
  br label %_ZN4i18n12phonenumbers11UnicodeText4Repr7reserveEi.exit.i.i

_ZN4i18n12phonenumbers11UnicodeText4Repr7reserveEi.exit.i.i: ; preds = %29, %._ZN4i18n12phonenumbers11UnicodeText4Repr7reserveEi.exit.i_crit_edge.i
  %.pre.pre3.i = phi ptr [ %.pre.pre3.pre.i, %._ZN4i18n12phonenumbers11UnicodeText4Repr7reserveEi.exit.i_crit_edge.i ], [ %22, %29 ]
  %30 = getelementptr inbounds nuw i8, ptr %0, i64 8
  %31 = load i32, ptr %30, align 8, !tbaa !21
  %32 = icmp slt i32 %31, %2
  br i1 %32, label %33, label %38

33:                                               ; preds = %_ZN4i18n12phonenumbers11UnicodeText4Repr7reserveEi.exit.i.i
  %34 = sext i32 %31 to i64
  %35 = getelementptr inbounds i8, ptr %.pre.pre3.i, i64 %34
  %36 = sub nsw i32 %2, %31
  %37 = sext i32 %36 to i64
  tail call void @llvm.memset.p0.i64(ptr align 1 %35, i8 0, i64 %37, i1 false)
  %.pre.pre.i = load ptr, ptr %0, align 8, !tbaa !20
  br label %38

38:                                               ; preds = %33, %_ZN4i18n12phonenumbers11UnicodeText4Repr7reserveEi.exit.i.i
  %.pre.i = phi ptr [ %.pre.pre.i, %33 ], [ %.pre.pre3.i, %_ZN4i18n12phonenumbers11UnicodeText4Repr7reserveEi.exit.i.i ]
  store i32 %2, ptr %30, align 8, !tbaa !21
  br label %_ZN4i18n12phonenumbers11UnicodeText4Repr4CopyEPKci.exit

_ZN4i18n12phonenumbers11UnicodeText4Repr4CopyEPKci.exit: ; preds = %_ZN4i18n12phonenumbers11UnicodeText4Repr5clearEv.exit.i.i, %38
  %39 = phi ptr [ null, %_ZN4i18n12phonenumbers11UnicodeText4Repr5clearEv.exit.i.i ], [ %.pre.i, %38 ]
  store i8 1, ptr %5, align 8, !tbaa !17
  %40 = sext i32 %2 to i64
  tail call void @llvm.memcpy.p0.p0.i64(ptr align 1 %39, ptr readonly align 1 %1, i64 %40, i1 false)
  ret ptr %0
}